target datalayout = "e-m:e-p270:32:32-p271:32:32-p272:64:64-i64:64-i128:128-f80:128-n8:16:32:64-S128"
target triple = "x86_64-pc-linux-gnu"

%struct._dfilter_loc = type { i64, i64 }
%struct.sttype_t = type { i32, ptr, ptr, ptr, ptr }
%struct.stnode = type { ptr, ptr, ptr, ptr, ptr, %struct._dfilter_loc, i16 }

@type_list = internal global [15 x ptr] zeroinitializer, align 16

; Function Attrs: nounwind null_pointer_is_valid sspstrong uwtable
define internal ptr @sttype_lookup(i32 noundef %0) #2 {
  %2 = alloca i32, align 4
  %3 = alloca ptr, align 8
  store i32 %0, ptr %2, align 4
  call void @llvm.lifetime.start.p0(i64 8, ptr %3) #9
  br label %4

4:                                                ; preds = %1
  br label %5

5:                                                ; preds = %4
  br label %6

6:                                                ; preds = %5
  %7 = load i32, ptr %2, align 4
  %8 = zext i32 %7 to i64
  %9 = getelementptr [15 x ptr], ptr @type_list, i64 0, i64 %8
  %10 = load ptr, ptr %9, align 8
  store ptr %10, ptr %3, align 8
  br label %11

11:                                               ; preds = %6
  br label %12

12:                                               ; preds = %11
  br label %13

13:                                               ; preds = %12
  %14 = load ptr, ptr %3, align 8
  call void @llvm.lifetime.end.p0(i64 8, ptr %3) #9
  ret ptr %14
}

; Function Attrs: null_pointer_is_valid sspstrong uwtable
define void @stnode_init(ptr noundef %0, i32 noundef %1, ptr noundef %2, ptr noundef %3, i64 %4, i64 %5) #0 {
  %7 = alloca %struct._dfilter_loc, align 8
  %8 = alloca ptr, align 8
  %9 = alloca i32, align 4
  %10 = alloca ptr, align 8
  %11 = alloca ptr, align 8
  %12 = alloca ptr, align 8
  %13 = getelementptr inbounds nuw { i64, i64 }, ptr %7, i32 0, i32 0
  store i64 %4, ptr %13, align 8
  %14 = getelementptr inbounds nuw { i64, i64 }, ptr %7, i32 0, i32 1
  store i64 %5, ptr %14, align 8
  store ptr %0, ptr %8, align 8
  store i32 %1, ptr %9, align 4
  store ptr %2, ptr %10, align 8
  store ptr %3, ptr %11, align 8
  call void @llvm.lifetime.start.p0(i64 8, ptr %12) #9
  br label %15

15:                                               ; preds = %6
  br label %16

16:                                               ; preds = %15
  br label %17

17:                                               ; preds = %16
  br label %18

18:                                               ; preds = %17
  br label %19

19:                                               ; preds = %18
  br label %20

20:                                               ; preds = %19
  %21 = load ptr, ptr %8, align 8
  %22 = getelementptr inbounds nuw %struct.stnode, ptr %21, i32 0, i32 3
  store ptr null, ptr %22, align 8
  %23 = load ptr, ptr %8, align 8
  %24 = getelementptr inbounds nuw %struct.stnode, ptr %23, i32 0, i32 4
  store ptr null, ptr %24, align 8
  %25 = load ptr, ptr %11, align 8
  %26 = load ptr, ptr %8, align 8
  %27 = getelementptr inbounds nuw %struct.stnode, ptr %26, i32 0, i32 2
  store ptr %25, ptr %27, align 8
  %28 = load ptr, ptr %8, align 8
  %29 = getelementptr inbounds nuw %struct.stnode, ptr %28, i32 0, i32 5
  call void @llvm.memcpy.p0.p0.i64(ptr align 8 %29, ptr align 8 %7, i64 16, i1 false)
  %30 = load ptr, ptr %8, align 8
  %31 = getelementptr inbounds nuw %struct.stnode, ptr %30, i32 0, i32 6
  store i16 0, ptr %31, align 8
  %32 = load i32, ptr %9, align 4
  %33 = icmp eq i32 %32, 0
  br i1 %33, label %34, label %39

34:                                               ; preds = %20
  %35 = load ptr, ptr %8, align 8
  %36 = getelementptr inbounds nuw %struct.stnode, ptr %35, i32 0, i32 0
  store ptr null, ptr %36, align 8
  %37 = load ptr, ptr %8, align 8
  %38 = getelementptr inbounds nuw %struct.stnode, ptr %37, i32 0, i32 1
  store ptr null, ptr %38, align 8
  br label %65

39:                                               ; preds = %20
  %40 = load i32, ptr %9, align 4
  %41 = call ptr @sttype_lookup(i32 noundef %40)
  store ptr %41, ptr %12, align 8
  br label %42

42:                                               ; preds = %39
  br label %43

43:                                               ; preds = %42
  br label %44

44:                                               ; preds = %43
  %45 = load ptr, ptr %12, align 8
  %46 = load ptr, ptr %8, align 8
  %47 = getelementptr inbounds nuw %struct.stnode, ptr %46, i32 0, i32 0
  store ptr %45, ptr %47, align 8
  %48 = load ptr, ptr %12, align 8
  %49 = getelementptr inbounds nuw %struct.sttype_t, ptr %48, i32 0, i32 1
  %50 = load ptr, ptr %49, align 8
  %51 = icmp ne ptr %50, null
  br i1 %51, label %52, label %60

52:                                               ; preds = %44
  %53 = load ptr, ptr %12, align 8
  %54 = getelementptr inbounds nuw %struct.sttype_t, ptr %53, i32 0, i32 1
  %55 = load ptr, ptr %54, align 8
  %56 = load ptr, ptr %10, align 8
  %57 = call ptr %55(ptr noundef %56)
  %58 = load ptr, ptr %8, align 8
  %59 = getelementptr inbounds nuw %struct.stnode, ptr %58, i32 0, i32 1
  store ptr %57, ptr %59, align 8
  br label %64

60:                                               ; preds = %44
  %61 = load ptr, ptr %10, align 8
  %62 = load ptr, ptr %8, align 8
  %63 = getelementptr inbounds nuw %struct.stnode, ptr %62, i32 0, i32 1
  store ptr %61, ptr %63, align 8
  br label %64

64:                                               ; preds = %60, %52
  br label %65

65:                                               ; preds = %64, %34
  call void @llvm.lifetime.end.p0(i64 8, ptr %12) #9
  ret void
}

; Function Attrs: null_pointer_is_valid sspstrong uwtable
define void @stnode_clear(ptr noundef %0) #0 {
  %2 = alloca ptr, align 8
  store ptr %0, ptr %2, align 8
  %3 = load ptr, ptr %2, align 8
  %4 = getelementptr inbounds nuw %struct.stnode, ptr %3, i32 0, i32 0
  %5 = load ptr, ptr %4, align 8
  %6 = icmp ne ptr %5, null
  br i1 %6, label %7, label %29

7:                                                ; preds = %1
  %8 = load ptr, ptr %2, align 8
  %9 = getelementptr inbounds nuw %struct.stnode, ptr %8, i32 0, i32 0
  %10 = load ptr, ptr %9, align 8
  %11 = getelementptr inbounds nuw %struct.sttype_t, ptr %10, i32 0, i32 2
  %12 = load ptr, ptr %11, align 8
  %13 = icmp ne ptr %12, null
  br i1 %13, label %14, label %28

14:                                               ; preds = %7
  %15 = load ptr, ptr %2, align 8
  %16 = getelementptr inbounds nuw %struct.stnode, ptr %15, i32 0, i32 1
  %17 = load ptr, ptr %16, align 8
  %18 = icmp ne ptr %17, null
  br i1 %18, label %19, label %28

19:                                               ; preds = %14
  %20 = load ptr, ptr %2, align 8
  %21 = getelementptr inbounds nuw %struct.stnode, ptr %20, i32 0, i32 0
  %22 = load ptr, ptr %21, align 8
  %23 = getelementptr inbounds nuw %struct.sttype_t, ptr %22, i32 0, i32 2
  %24 = load ptr, ptr %23, align 8
  %25 = load ptr, ptr %2, align 8
  %26 = getelementptr inbounds nuw %struct.stnode, ptr %25, i32 0, i32 1
  %27 = load ptr, ptr %26, align 8
  call void %24(ptr noundef %27)
  br label %28

28:                                               ; preds = %19, %14, %7
  br label %32

29:                                               ; preds = %1
  br label %30

30:                                               ; preds = %29
  br label %31

31:                                               ; preds = %30
  br label %32

32:                                               ; preds = %31, %28
  %33 = load ptr, ptr %2, align 8
  %34 = getelementptr inbounds nuw %struct.stnode, ptr %33, i32 0, i32 0
  store ptr null, ptr %34, align 8
  %35 = load ptr, ptr %2, align 8
  %36 = getelementptr inbounds nuw %struct.stnode, ptr %35, i32 0, i32 1
  store ptr null, ptr %36, align 8
  %37 = load ptr, ptr %2, align 8
  %38 = getelementptr inbounds nuw %struct.stnode, ptr %37, i32 0, i32 3
  %39 = load ptr, ptr %38, align 8
  call void @g_free(ptr noundef %39)
  %40 = load ptr, ptr %2, align 8
  %41 = getelementptr inbounds nuw %struct.stnode, ptr %40, i32 0, i32 3
  store ptr null, ptr %41, align 8
  %42 = load ptr, ptr %2, align 8
  %43 = getelementptr inbounds nuw %struct.stnode, ptr %42, i32 0, i32 4
  %44 = load ptr, ptr %43, align 8
  call void @g_free(ptr noundef %44)
  %45 = load ptr, ptr %2, align 8
  %46 = getelementptr inbounds nuw %struct.stnode, ptr %45, i32 0, i32 4
  store ptr null, ptr %46, align 8
  %47 = load ptr, ptr %2, align 8
  %48 = getelementptr inbounds nuw %struct.stnode, ptr %47, i32 0, i32 2
  %49 = load ptr, ptr %48, align 8
  call void @g_free(ptr noundef %49)
  %50 = load ptr, ptr %2, align 8
  %51 = getelementptr inbounds nuw %struct.stnode, ptr %50, i32 0, i32 2
  store ptr null, ptr %51, align 8
  %52 = load ptr, ptr %2, align 8
  %53 = getelementptr inbounds nuw %struct.stnode, ptr %52, i32 0, i32 5
  %54 = getelementptr inbounds nuw %struct._dfilter_loc, ptr %53, i32 0, i32 0
  store i64 -1, ptr %54, align 8
  %55 = load ptr, ptr %2, align 8
  %56 = getelementptr inbounds nuw %struct.stnode, ptr %55, i32 0, i32 5
  %57 = getelementptr inbounds nuw %struct._dfilter_loc, ptr %56, i32 0, i32 1
  store i64 0, ptr %57, align 8
  %58 = load ptr, ptr %2, align 8
  %59 = getelementptr inbounds nuw %struct.stnode, ptr %58, i32 0, i32 6
  store i16 0, ptr %59, align 8
  ret void
}

; Function Attrs: null_pointer_is_valid sspstrong uwtable
define void @stnode_replace(ptr noundef %0, i32 noundef %1, ptr noundef %2) #0 {
  %4 = alloca ptr, align 8
  %5 = alloca i32, align 4
  %6 = alloca ptr, align 8
  %7 = alloca ptr, align 8
  %8 = alloca %struct._dfilter_loc, align 8
  %9 = alloca i16, align 2
  store ptr %0, ptr %4, align 8
  store i32 %1, ptr %5, align 4
  store ptr %2, ptr %6, align 8
  call void @llvm.lifetime.start.p0(i64 8, ptr %7) #9
  %10 = load ptr, ptr %4, align 8
  %11 = getelementptr inbounds nuw %struct.stnode, ptr %10, i32 0, i32 2
  %12 = load ptr, ptr %11, align 8
  %13 = call noalias ptr @g_strdup(ptr noundef %12)
  store ptr %13, ptr %7, align 8
  call void @llvm.lifetime.start.p0(i64 16, ptr %8) #9
  %14 = load ptr, ptr %4, align 8
  %15 = getelementptr inbounds nuw %struct.stnode, ptr %14, i32 0, i32 5
  call void @llvm.memcpy.p0.p0.i64(ptr align 8 %8, ptr align 8 %15, i64 16, i1 false)
  call void @llvm.lifetime.start.p0(i64 2, ptr %9) #9
  %16 = load ptr, ptr %4, align 8
  %17 = getelementptr inbounds nuw %struct.stnode, ptr %16, i32 0, i32 6
  %18 = load i16, ptr %17, align 8
  store i16 %18, ptr %9, align 2
  %19 = load ptr, ptr %4, align 8
  call void @stnode_clear(ptr noundef %19)
  %20 = load ptr, ptr %4, align 8
  %21 = load i32, ptr %5, align 4
  %22 = load ptr, ptr %6, align 8
  %23 = load ptr, ptr %7, align 8
  %24 = getelementptr inbounds nuw { i64, i64 }, ptr %8, i32 0, i32 0
  %25 = load i64, ptr %24, align 8
  %26 = getelementptr inbounds nuw { i64, i64 }, ptr %8, i32 0, i32 1
  %27 = load i64, ptr %26, align 8
  call void @stnode_init(ptr noundef %20, i32 noundef %21, ptr noundef %22, ptr noundef %23, i64 %25, i64 %27)
  %28 = load i16, ptr %9, align 2
  %29 = load ptr, ptr %4, align 8
  %30 = getelementptr inbounds nuw %struct.stnode, ptr %29, i32 0, i32 6
  store i16 %28, ptr %30, align 8
  call void @llvm.lifetime.end.p0(i64 2, ptr %9) #9
  call void @llvm.lifetime.end.p0(i64 16, ptr %8) #9
  call void @llvm.lifetime.end.p0(i64 8, ptr %7) #9
  ret void
}