; Function Attrs: null_pointer_is_valid sspstrong uwtable
define void @stnode_replace(ptr noundef captures(none) %0, i32 noundef %1, ptr noundef %2) local_unnamed_addr #0 {
  %4 = getelementptr inbounds nuw i8, ptr %0, i64 16
  %5 = load ptr, ptr %4, align 8
  %6 = tail call noalias ptr @g_strdup(ptr noundef %5)
  %7 = getelementptr inbounds nuw i8, ptr %0, i64 40
  %.sroa.0.0.copyload = load i64, ptr %7, align 8
  %.sroa.4.0..sroa_idx = getelementptr inbounds nuw i8, ptr %0, i64 48
  %.sroa.4.0.copyload = load i64, ptr %.sroa.4.0..sroa_idx, align 8
  %8 = getelementptr inbounds nuw i8, ptr %0, i64 56
  %9 = load i16, ptr %8, align 8
  %10 = load ptr, ptr %0, align 8
  %.not.i = icmp eq ptr %10, null
  br i1 %.not.i, label %stnode_clear.exit, label %11

11:                                               ; preds = %3
  %12 = getelementptr inbounds nuw i8, ptr %10, i64 16
  %13 = load ptr, ptr %12, align 8
  %.not18.i = icmp eq ptr %13, null
  br i1 %.not18.i, label %stnode_clear.exit, label %14

14:                                               ; preds = %11
  %15 = getelementptr inbounds nuw i8, ptr %0, i64 8
  %16 = load ptr, ptr %15, align 8
  %.not19.i = icmp eq ptr %16, null
  br i1 %.not19.i, label %stnode_clear.exit, label %17

17:                                               ; preds = %14
  tail call void %13(ptr noundef nonnull %16)
  br label %stnode_clear.exit

stnode_clear.exit:                                ; preds = %3, %11, %14, %17
  %18 = getelementptr inbounds nuw i8, ptr %0, i64 24
  tail call void @llvm.memset.p0.i64(ptr noundef align 8 dereferenceable(16) %0, i8 0, i64 16, i1 false)
  %19 = load ptr, ptr %18, align 8
  tail call void @g_free(ptr noundef %19)
  store ptr null, ptr %18, align 8
  %20 = getelementptr inbounds nuw i8, ptr %0, i64 32
  %21 = load ptr, ptr %20, align 8
  tail call void @g_free(ptr noundef %21)
  store ptr null, ptr %20, align 8
  %22 = load ptr, ptr %4, align 8
  tail call void @g_free(ptr noundef %22)
  tail call void @llvm.memset.p0.i64(ptr noundef nonnull align 8 dereferenceable(16) %18, i8 0, i64 16, i1 false)
  store ptr %6, ptr %4, align 8
  store i64 %.sroa.0.0.copyload, ptr %7, align 8
  store i64 %.sroa.4.0.copyload, ptr %.sroa.4.0..sroa_idx, align 8
  store i16 0, ptr %8, align 8
  %23 = icmp eq i32 %1, 0
  br i1 %23, label %24, label %25

24:                                               ; preds = %stnode_clear.exit
  tail call void @llvm.memset.p0.i64(ptr noundef align 8 dereferenceable(16) %0, i8 0, i64 16, i1 false)
  br label %stnode_init.exit

25:                                               ; preds = %stnode_clear.exit
  %26 = zext i32 %1 to i64
  %27 = getelementptr [15 x ptr], ptr @type_list, i64 0, i64 %26
  %28 = load ptr, ptr %27, align 8
  store ptr %28, ptr %0, align 8
  %29 = getelementptr inbounds nuw i8, ptr %28, i64 8
  %30 = load ptr, ptr %29, align 8
  %.not.i9 = icmp eq ptr %30, null
  br i1 %.not.i9, label %34, label %31

31:                                               ; preds = %25
  %32 = tail call ptr %30(ptr noundef %2)
  %33 = getelementptr inbounds nuw i8, ptr %0, i64 8
  store ptr %32, ptr %33, align 8
  br label %stnode_init.exit

34:                                               ; preds = %25
  %35 = getelementptr inbounds nuw i8, ptr %0, i64 8
  store ptr %2, ptr %35, align 8
  br label %stnode_init.exit

stnode_init.exit:                                 ; preds = %24, %31, %34
  store i16 %9, ptr %8, align 8
  ret void
}